target datalayout = "e-m:e-p270:32:32-p271:32:32-p272:64:64-i64:64-i128:128-f80:128-n8:16:32:64-S128"
target triple = "x86_64-pc-linux-gnu"

%struct.Aig_Obj_t_ = type { %union.anon, ptr, ptr, i64, i32, i32, %union.anon.0 }
%union.anon = type { ptr }
%union.anon.0 = type { ptr }
%struct.Aig_Man_t_ = type { ptr, ptr, ptr, ptr, ptr, ptr, ptr, %struct.Aig_Obj_t_, i32, i32, i32, i32, i32, i32, [7 x i32], i32, ptr, i32, ptr, i32, ptr, i32, i32, i32, ptr, i32, i32, i32, i32, i32, ptr, ptr, i32, ptr, ptr, i32, ptr, ptr, i32, i32, i32, ptr, ptr, ptr, ptr, ptr, ptr, ptr, ptr, ptr, ptr, ptr, ptr, ptr, ptr, i32, ptr, ptr, ptr, ptr, i32, i64, i64, i64, ptr, ptr }
%struct.Vec_Int_t_ = type { i32, i32, ptr }
%struct.Vec_Ptr_t_ = type { i32, i32, ptr }
%struct.Fra_Man_t_ = type { ptr, ptr, ptr, i32, ptr, i32, ptr, ptr, ptr, i32, ptr, ptr, ptr, ptr, i32, ptr, i64, i64, ptr, ptr, i32, ptr, i32, i32, i32, i32, i32, i32, i32, i32, i32, i32, i32, i32, i32, i32, i32, i32, i32, i32, i32, i64, i64, i64, i64, i64, i64, i64, i64, i64, i64, i64 }
%struct.Fra_Cla_t_ = type { ptr, ptr, ptr, ptr, ptr, ptr, ptr, ptr, ptr, i32, i32, ptr, ptr, ptr, ptr }

@.str.1 = private unnamed_addr constant [43 x i8] c"Fra_OneHotCheck(): Clause is not refined!\0A\00", align 1

; Function Attrs: inlinehint nounwind uwtable
define internal ptr @Vec_PtrEntry(ptr noundef %0, i32 noundef %1) #2 {
  %3 = alloca ptr, align 8
  %4 = alloca i32, align 4
  store ptr %0, ptr %3, align 8, !tbaa !48
  store i32 %1, ptr %4, align 4, !tbaa !18
  %5 = load ptr, ptr %3, align 8, !tbaa !48
  %6 = getelementptr inbounds nuw %struct.Vec_Ptr_t_, ptr %5, i32 0, i32 2
  %7 = load ptr, ptr %6, align 8, !tbaa !51
  %8 = load i32, ptr %4, align 4, !tbaa !18
  %9 = sext i32 %8 to i64
  %10 = getelementptr inbounds ptr, ptr %7, i64 %9
  %11 = load ptr, ptr %10, align 8, !tbaa !52
  ret ptr %11
}

; Function Attrs: inlinehint nounwind uwtable
define internal i32 @Fra_LitSign(i32 noundef %0) #2 {
  %2 = alloca i32, align 4
  store i32 %0, ptr %2, align 4, !tbaa !18
  %3 = load i32, ptr %2, align 4, !tbaa !18
  %4 = icmp slt i32 %3, 0
  %5 = zext i1 %4 to i32
  ret i32 %5
}

; Function Attrs: inlinehint nounwind uwtable
define internal ptr @Aig_ManCo(ptr noundef %0, i32 noundef %1) #2 {
  %3 = alloca ptr, align 8
  %4 = alloca i32, align 4
  store ptr %0, ptr %3, align 8, !tbaa !42
  store i32 %1, ptr %4, align 4, !tbaa !18
  %5 = load ptr, ptr %3, align 8, !tbaa !42
  %6 = getelementptr inbounds nuw %struct.Aig_Man_t_, ptr %5, i32 0, i32 3
  %7 = load ptr, ptr %6, align 8, !tbaa !68
  %8 = load i32, ptr %4, align 4, !tbaa !18
  %9 = call ptr @Vec_PtrEntry(ptr noundef %7, i32 noundef %8)
  ret ptr %9
}

; Function Attrs: inlinehint nounwind uwtable
define internal i32 @Fra_LitReg(i32 noundef %0) #2 {
  %2 = alloca i32, align 4
  store i32 %0, ptr %2, align 4, !tbaa !18
  %3 = load i32, ptr %2, align 4, !tbaa !18
  %4 = icmp sgt i32 %3, 0
  br i1 %4, label %5, label %8

5:                                                ; preds = %1
  %6 = load i32, ptr %2, align 4, !tbaa !18
  %7 = sub nsw i32 %6, 1
  br label %12

8:                                                ; preds = %1
  %9 = load i32, ptr %2, align 4, !tbaa !18
  %10 = sub nsw i32 0, %9
  %11 = sub nsw i32 %10, 1
  br label %12

12:                                               ; preds = %8, %5
  %13 = phi i32 [ %7, %5 ], [ %11, %8 ]
  ret i32 %13
}

; Function Attrs: inlinehint nounwind uwtable
define internal i32 @Vec_IntEntry(ptr noundef %0, i32 noundef %1) #2 {
  %3 = alloca ptr, align 8
  %4 = alloca i32, align 4
  store ptr %0, ptr %3, align 8, !tbaa !29
  store i32 %1, ptr %4, align 4, !tbaa !18
  %5 = load ptr, ptr %3, align 8, !tbaa !29
  %6 = getelementptr inbounds nuw %struct.Vec_Int_t_, ptr %5, i32 0, i32 2
  %7 = load ptr, ptr %6, align 8, !tbaa !47
  %8 = load i32, ptr %4, align 4, !tbaa !18
  %9 = sext i32 %8 to i64
  %10 = getelementptr inbounds i32, ptr %7, i64 %9
  %11 = load i32, ptr %10, align 4, !tbaa !18
  ret i32 %11
}

; Function Attrs: inlinehint nounwind uwtable
define internal i32 @Vec_IntSize(ptr noundef %0) #2 {
  %2 = alloca ptr, align 8
  store ptr %0, ptr %2, align 8, !tbaa !29
  %3 = load ptr, ptr %2, align 8, !tbaa !29
  %4 = getelementptr inbounds nuw %struct.Vec_Int_t_, ptr %3, i32 0, i32 1
  %5 = load i32, ptr %4, align 4, !tbaa !44
  ret i32 %5
}

; Function Attrs: inlinehint nounwind uwtable
define internal i32 @Aig_ManRegNum(ptr noundef %0) #2 {
  %2 = alloca ptr, align 8
  store ptr %0, ptr %2, align 8, !tbaa !42
  %3 = load ptr, ptr %2, align 8, !tbaa !42
  %4 = getelementptr inbounds nuw %struct.Aig_Man_t_, ptr %3, i32 0, i32 8
  %5 = load i32, ptr %4, align 8, !tbaa !43
  ret i32 %5
}

; Function Attrs: inlinehint nounwind uwtable
define internal i32 @Aig_ManCoNum(ptr noundef %0) #2 {
  %2 = alloca ptr, align 8
  store ptr %0, ptr %2, align 8, !tbaa !42
  %3 = load ptr, ptr %2, align 8, !tbaa !42
  %4 = getelementptr inbounds nuw %struct.Aig_Man_t_, ptr %3, i32 0, i32 14
  %5 = getelementptr inbounds [7 x i32], ptr %4, i64 0, i64 3
  %6 = load i32, ptr %5, align 4, !tbaa !18
  ret i32 %6
}

; Function Attrs: nounwind uwtable
define void @Fra_OneHotCheck(ptr noundef %0, ptr noundef %1) #0 {
  %3 = alloca ptr, align 8
  %4 = alloca ptr, align 8
  %5 = alloca ptr, align 8
  %6 = alloca ptr, align 8
  %7 = alloca i32, align 4
  %8 = alloca i32, align 4
  %9 = alloca i32, align 4
  %10 = alloca i32, align 4
  %11 = alloca i32, align 4
  store ptr %0, ptr %3, align 8, !tbaa !26
  store ptr %1, ptr %4, align 8, !tbaa !29
  call void @llvm.lifetime.start.p0(i64 8, ptr %5) #10
  call void @llvm.lifetime.start.p0(i64 8, ptr %6) #10
  call void @llvm.lifetime.start.p0(i64 4, ptr %7) #10
  call void @llvm.lifetime.start.p0(i64 4, ptr %8) #10
  call void @llvm.lifetime.start.p0(i64 4, ptr %9) #10
  call void @llvm.lifetime.start.p0(i64 4, ptr %10) #10
  call void @llvm.lifetime.start.p0(i64 4, ptr %11) #10
  %12 = load ptr, ptr %3, align 8, !tbaa !26
  %13 = getelementptr inbounds nuw %struct.Fra_Man_t_, ptr %12, i32 0, i32 2
  %14 = load ptr, ptr %13, align 8, !tbaa !53
  %15 = call i32 @Aig_ManCoNum(ptr noundef %14)
  %16 = load ptr, ptr %3, align 8, !tbaa !26
  %17 = getelementptr inbounds nuw %struct.Fra_Man_t_, ptr %16, i32 0, i32 2
  %18 = load ptr, ptr %17, align 8, !tbaa !53
  %19 = call i32 @Aig_ManRegNum(ptr noundef %18)
  %20 = sub nsw i32 %15, %19
  store i32 %20, ptr %11, align 4, !tbaa !18
  store i32 0, ptr %8, align 4, !tbaa !18
  br label %21

21:                                               ; preds = %85, %2
  %22 = load i32, ptr %8, align 4, !tbaa !18
  %23 = load ptr, ptr %4, align 8, !tbaa !29
  %24 = call i32 @Vec_IntSize(ptr noundef %23)
  %25 = icmp slt i32 %22, %24
  br i1 %25, label %26, label %88

26:                                               ; preds = %21
  %27 = load ptr, ptr %4, align 8, !tbaa !29
  %28 = load i32, ptr %8, align 4, !tbaa !18
  %29 = call i32 @Vec_IntEntry(ptr noundef %27, i32 noundef %28)
  store i32 %29, ptr %9, align 4, !tbaa !18
  %30 = load ptr, ptr %4, align 8, !tbaa !29
  %31 = load i32, ptr %8, align 4, !tbaa !18
  %32 = add nsw i32 %31, 1
  %33 = call i32 @Vec_IntEntry(ptr noundef %30, i32 noundef %32)
  store i32 %33, ptr %10, align 4, !tbaa !18
  %34 = load i32, ptr %9, align 4, !tbaa !18
  %35 = icmp eq i32 %34, 0
  br i1 %35, label %36, label %40

36:                                               ; preds = %26
  %37 = load i32, ptr %10, align 4, !tbaa !18
  %38 = icmp eq i32 %37, 0
  br i1 %38, label %39, label %40

39:                                               ; preds = %36
  br label %85

40:                                               ; preds = %36, %26
  %41 = load ptr, ptr %3, align 8, !tbaa !26
  %42 = getelementptr inbounds nuw %struct.Fra_Man_t_, ptr %41, i32 0, i32 2
  %43 = load ptr, ptr %42, align 8, !tbaa !53
  %44 = load i32, ptr %11, align 4, !tbaa !18
  %45 = load i32, ptr %9, align 4, !tbaa !18
  %46 = call i32 @Fra_LitReg(i32 noundef %45)
  %47 = add nsw i32 %44, %46
  %48 = call ptr @Aig_ManCo(ptr noundef %43, i32 noundef %47)
  store ptr %48, ptr %5, align 8, !tbaa !8
  %49 = load ptr, ptr %3, align 8, !tbaa !26
  %50 = getelementptr inbounds nuw %struct.Fra_Man_t_, ptr %49, i32 0, i32 2
  %51 = load ptr, ptr %50, align 8, !tbaa !53
  %52 = load i32, ptr %11, align 4, !tbaa !18
  %53 = load i32, ptr %10, align 4, !tbaa !18
  %54 = call i32 @Fra_LitReg(i32 noundef %53)
  %55 = add nsw i32 %52, %54
  %56 = call ptr @Aig_ManCo(ptr noundef %51, i32 noundef %55)
  store ptr %56, ptr %6, align 8, !tbaa !8
  %57 = load ptr, ptr %3, align 8, !tbaa !26
  %58 = load ptr, ptr %5, align 8, !tbaa !8
  %59 = load ptr, ptr %6, align 8, !tbaa !8
  %60 = load i32, ptr %9, align 4, !tbaa !18
  %61 = call i32 @Fra_LitSign(i32 noundef %60)
  %62 = load i32, ptr %10, align 4, !tbaa !18
  %63 = call i32 @Fra_LitSign(i32 noundef %62)
  %64 = call i32 @Fra_NodesAreClause(ptr noundef %57, ptr noundef %58, ptr noundef %59, i32 noundef %61, i32 noundef %63)
  store i32 %64, ptr %7, align 4, !tbaa !18
  %65 = load i32, ptr %7, align 4, !tbaa !18
  %66 = icmp ne i32 %65, 1
  br i1 %66, label %67, label %84

67:                                               ; preds = %40
  %68 = load ptr, ptr %3, align 8, !tbaa !26
  %69 = getelementptr inbounds nuw %struct.Fra_Man_t_, ptr %68, i32 0, i32 6
  %70 = load ptr, ptr %69, align 8, !tbaa !64
  %71 = getelementptr inbounds nuw %struct.Fra_Cla_t_, ptr %70, i32 0, i32 10
  store i32 1, ptr %71, align 4, !tbaa !65
  %72 = load i32, ptr %7, align 4, !tbaa !18
  %73 = icmp eq i32 %72, 0
  br i1 %73, label %74, label %76

74:                                               ; preds = %67
  %75 = load ptr, ptr %3, align 8, !tbaa !26
  call void @Fra_SmlResimulate(ptr noundef %75)
  br label %76

76:                                               ; preds = %74, %67
  %77 = load ptr, ptr %4, align 8, !tbaa !29
  %78 = load i32, ptr %8, align 4, !tbaa !18
  %79 = call i32 @Vec_IntEntry(ptr noundef %77, i32 noundef %78)
  %80 = icmp ne i32 %79, 0
  br i1 %80, label %81, label %83

81:                                               ; preds = %76
  %82 = call i32 (ptr, ...) @printf(ptr noundef @.str.1)
  br label %83

83:                                               ; preds = %81, %76
  br label %84

84:                                               ; preds = %83, %40
  br label %85

85:                                               ; preds = %84, %39
  %86 = load i32, ptr %8, align 4, !tbaa !18
  %87 = add nsw i32 %86, 2
  store i32 %87, ptr %8, align 4, !tbaa !18
  br label %21, !llvm.loop !67

88:                                               ; preds = %21
  call void @llvm.lifetime.end.p0(i64 4, ptr %11) #10
  call void @llvm.lifetime.end.p0(i64 4, ptr %10) #10
  call void @llvm.lifetime.end.p0(i64 4, ptr %9) #10
  call void @llvm.lifetime.end.p0(i64 4, ptr %8) #10
  call void @llvm.lifetime.end.p0(i64 4, ptr %7) #10
  call void @llvm.lifetime.end.p0(i64 8, ptr %6) #10
  call void @llvm.lifetime.end.p0(i64 8, ptr %5) #10
  ret void
}