; Function Attrs: nounwind uwtable
define void @Fra_OneHotCheck(ptr noundef %0, ptr noundef readonly captures(none) %1) local_unnamed_addr #2 {
  %3 = getelementptr inbounds nuw i8, ptr %0, i64 16
  %4 = load ptr, ptr %3, align 8, !tbaa !45
  %5 = getelementptr i8, ptr %4, i64 140
  %.val34 = load i32, ptr %5, align 4, !tbaa !16
  %6 = getelementptr i8, ptr %4, i64 104
  %.val = load i32, ptr %6, align 8, !tbaa !22
  %7 = sub nsw i32 %.val34, %.val
  %8 = getelementptr i8, ptr %1, i64 4
  %.val3038 = load i32, ptr %8, align 4, !tbaa !33
  %9 = icmp sgt i32 %.val3038, 0
  br i1 %9, label %.lr.ph, label %._crit_edge

.lr.ph:                                           ; preds = %2
  %10 = getelementptr i8, ptr %1, i64 8
  %11 = getelementptr inbounds nuw i8, ptr %0, i64 48
  br label %12

12:                                               ; preds = %.lr.ph, %50
  %indvars.iv = phi i64 [ 0, %.lr.ph ], [ %indvars.iv.next, %50 ]
  %.val33 = load ptr, ptr %10, align 8, !tbaa !36
  %13 = getelementptr inbounds nuw i32, ptr %.val33, i64 %indvars.iv
  %14 = load i32, ptr %13, align 4, !tbaa !16
  %15 = or disjoint i64 %indvars.iv, 1
  %16 = getelementptr inbounds nuw i32, ptr %.val33, i64 %15
  %17 = load i32, ptr %16, align 4, !tbaa !16
  %18 = icmp eq i32 %14, 0
  %19 = icmp eq i32 %17, 0
  %or.cond = select i1 %18, i1 %19, i1 false
  br i1 %or.cond, label %50, label %20

20:                                               ; preds = %12
  %21 = load ptr, ptr %3, align 8, !tbaa !45
  %22 = icmp sgt i32 %14, 0
  %23 = add nsw i32 %14, -1
  %24 = xor i32 %14, -1
  %25 = select i1 %22, i32 %23, i32 %24
  %26 = add nsw i32 %25, %7
  %27 = getelementptr i8, ptr %21, i64 24
  %.val35 = load ptr, ptr %27, align 8, !tbaa !57
  %28 = getelementptr i8, ptr %.val35, i64 8
  %.val35.val = load ptr, ptr %28, align 8, !tbaa !40
  %29 = sext i32 %26 to i64
  %30 = getelementptr inbounds ptr, ptr %.val35.val, i64 %29
  %31 = load ptr, ptr %30, align 8, !tbaa !41
  %32 = icmp sgt i32 %17, 0
  %33 = add nsw i32 %17, -1
  %34 = xor i32 %17, -1
  %35 = select i1 %32, i32 %33, i32 %34
  %36 = add nsw i32 %35, %7
  %37 = sext i32 %36 to i64
  %38 = getelementptr inbounds ptr, ptr %.val35.val, i64 %37
  %39 = load ptr, ptr %38, align 8, !tbaa !41
  %.lobit.i = lshr i32 %14, 31
  %.lobit.i37 = lshr i32 %17, 31
  %40 = tail call i32 @Fra_NodesAreClause(ptr noundef %0, ptr noundef %31, ptr noundef %39, i32 noundef %.lobit.i, i32 noundef %.lobit.i37) #19
  %.not = icmp eq i32 %40, 1
  br i1 %.not, label %50, label %41

41:                                               ; preds = %20
  %42 = load ptr, ptr %11, align 8, !tbaa !58
  %43 = getelementptr inbounds nuw i8, ptr %42, i64 76
  store i32 1, ptr %43, align 4, !tbaa !59
  %44 = icmp eq i32 %40, 0
  br i1 %44, label %45, label %46

45:                                               ; preds = %41
  tail call void @Fra_SmlResimulate(ptr noundef nonnull %0) #19
  br label %46

46:                                               ; preds = %45, %41
  %.val31 = load ptr, ptr %10, align 8, !tbaa !36
  %47 = getelementptr inbounds nuw i32, ptr %.val31, i64 %indvars.iv
  %48 = load i32, ptr %47, align 4, !tbaa !16
  %.not29 = icmp eq i32 %48, 0
  br i1 %.not29, label %50, label %49

49:                                               ; preds = %46
  %puts = tail call i32 @puts(ptr nonnull dereferenceable(1) @str.1)
  br label %50

50:                                               ; preds = %20, %49, %46, %12
  %indvars.iv.next = add nuw nsw i64 %indvars.iv, 2
  %.val30 = load i32, ptr %8, align 4, !tbaa !33
  %51 = trunc nuw i64 %indvars.iv.next to i32
  %52 = icmp sgt i32 %.val30, %51
  br i1 %52, label %12, label %._crit_edge, !llvm.loop !61

._crit_edge:                                      ; preds = %50, %2
  ret void
}